target datalayout = "e-m:e-p270:32:32-p271:32:32-p272:64:64-i64:64-i128:128-f80:128-n8:16:32:64-S128"
target triple = "x86_64-unknown-linux-gnu"

%struct.QTailQLink = type { ptr, ptr }
%struct.BlockDriverState = type { i32, i8, i8, i8, i8, i8, ptr, ptr, ptr, %struct.anon.0, i8, [4096 x i8], [4096 x i8], [4096 x i8], [16 x i8], ptr, [4096 x i8], %struct.BlockLimits, i32, i32, i32, i32, [32 x i8], %union.anon.1, %union.anon.2, %union.anon.3, i32, [16 x %struct.anon.4], ptr, %struct.anon.5, ptr, ptr, %struct.anon.6, ptr, ptr, i32, ptr, i64, i64, %struct.QemuMutex, %struct.anon.7, %struct.Stat64, i32, i32, i32, i32, i32, i32, %struct.QemuMutex, %struct.anon.8, %struct.CoQueue, i8, i32, i8, %struct.CoMutex, ptr, ptr }
%struct.anon.0 = type { ptr }
%struct.BlockLimits = type { i32, i64, i32, i64, i32, i32, i32, i64, i32, i64, i64, i32, i8, i32, i32, i32, i32, i32, i32, i32 }
%union.anon.1 = type { %struct.QTailQLink }
%union.anon.2 = type { %struct.QTailQLink }
%union.anon.3 = type { %struct.QTailQLink }
%struct.anon.4 = type { ptr }
%struct.anon.5 = type { ptr }
%struct.anon.6 = type { ptr }
%struct.anon.7 = type { ptr }
%struct.Stat64 = type { i64 }
%struct.QemuMutex = type { %union.pthread_mutex_t, i8 }
%union.pthread_mutex_t = type { %struct.__pthread_mutex_s }
%struct.__pthread_mutex_s = type { i32, i32, i32, i32, i32, i16, i16, %struct.__pthread_internal_list }
%struct.__pthread_internal_list = type { ptr, ptr }
%struct.anon.8 = type { ptr }
%struct.CoQueue = type { %struct.anon.9 }
%struct.anon.9 = type { ptr, ptr }
%struct.CoMutex = type { i32, ptr, %struct.anon.10, %struct.anon.10, i32, i32, ptr }
%struct.anon.10 = type { ptr }
%struct.BDRVParallelsState = type { %struct.CoMutex, ptr, i32, i8, ptr, i32, ptr, i64, ptr, i32, i64, i64, i64, i32, i32, i32, i32, ptr }

; Function Attrs: nounwind sspstrong uwtable
define internal i32 @bat_entry_off(i32 noundef %idx) #0 {
entry:
  %idx.addr = alloca i32, align 4
  store i32 %idx, ptr %idx.addr, align 4
  %0 = load i32, ptr %idx.addr, align 4
  %conv = zext i32 %0 to i64
  %mul = mul i64 4, %conv
  %add = add i64 64, %mul
  %conv1 = trunc i64 %add to i32
  ret i32 %conv1
}

; Function Attrs: nounwind sspstrong uwtable
define internal i32 @cpu_to_le32(i32 noundef %v) #0 {
entry:
  %v.addr = alloca i32, align 4
  store i32 %v, ptr %v.addr, align 4
  %0 = load i32, ptr %v.addr, align 4
  ret i32 %0
}

; Function Attrs: nounwind sspstrong uwtable
define internal i32 @le32_to_cpu(i32 noundef %v) #0 {
entry:
  %v.addr = alloca i32, align 4
  store i32 %v, ptr %v.addr, align 4
  %0 = load i32, ptr %v.addr, align 4
  ret i32 %0
}

; Function Attrs: nounwind sspstrong uwtable
define internal i32 @host_cluster_index(ptr noundef %s, i64 noundef %off) #0 {
entry:
  %s.addr = alloca ptr, align 8
  %off.addr = alloca i64, align 8
  store ptr %s, ptr %s.addr, align 8
  store i64 %off, ptr %off.addr, align 8
  %0 = load ptr, ptr %s.addr, align 8
  %data_start = getelementptr inbounds %struct.BDRVParallelsState, ptr %0, i32 0, i32 10
  %1 = load i64, ptr %data_start, align 8
  %shl = shl i64 %1, 9
  %2 = load i64, ptr %off.addr, align 8
  %sub = sub i64 %2, %shl
  store i64 %sub, ptr %off.addr, align 8
  %3 = load i64, ptr %off.addr, align 8
  %4 = load ptr, ptr %s.addr, align 8
  %cluster_size = getelementptr inbounds %struct.BDRVParallelsState, ptr %4, i32 0, i32 15
  %5 = load i32, ptr %cluster_size, align 8
  %conv = zext i32 %5 to i64
  %div = sdiv i64 %3, %conv
  %conv1 = trunc i64 %div to i32
  ret i32 %conv1
}

; Function Attrs: nounwind sspstrong uwtable
define internal void @parallels_set_bat_entry(ptr noundef %s, i32 noundef %index, i32 noundef %offset) #0 {
entry:
  %s.addr = alloca ptr, align 8
  %index.addr = alloca i32, align 4
  %offset.addr = alloca i32, align 4
  store ptr %s, ptr %s.addr, align 8
  store i32 %index, ptr %index.addr, align 4
  store i32 %offset, ptr %offset.addr, align 4
  %0 = load i32, ptr %offset.addr, align 4
  %call = call i32 @cpu_to_le32(i32 noundef %0)
  %1 = load ptr, ptr %s.addr, align 8
  %bat_bitmap = getelementptr inbounds %struct.BDRVParallelsState, ptr %1, i32 0, i32 8
  %2 = load ptr, ptr %bat_bitmap, align 8
  %3 = load i32, ptr %index.addr, align 4
  %idxprom = zext i32 %3 to i64
  %arrayidx = getelementptr i32, ptr %2, i64 %idxprom
  store i32 %call, ptr %arrayidx, align 4
  %4 = load ptr, ptr %s.addr, align 8
  %bat_dirty_bmap = getelementptr inbounds %struct.BDRVParallelsState, ptr %4, i32 0, i32 4
  %5 = load ptr, ptr %bat_dirty_bmap, align 8
  %6 = load i32, ptr %index.addr, align 4
  %call1 = call i32 @bat_entry_off(i32 noundef %6)
  %7 = load ptr, ptr %s.addr, align 8
  %bat_dirty_block = getelementptr inbounds %struct.BDRVParallelsState, ptr %7, i32 0, i32 5
  %8 = load i32, ptr %bat_dirty_block, align 8
  %div = udiv i32 %call1, %8
  %conv = zext i32 %div to i64
  call void @bitmap_set(ptr noundef %5, i64 noundef %conv, i64 noundef 1)
  ret void
}

; Function Attrs: nounwind sspstrong uwtable
define internal i64 @bat2sect(ptr noundef %s, i32 noundef %idx) #0 {
entry:
  %s.addr = alloca ptr, align 8
  %idx.addr = alloca i32, align 4
  store ptr %s, ptr %s.addr, align 8
  store i32 %idx, ptr %idx.addr, align 4
  %0 = load ptr, ptr %s.addr, align 8
  %bat_bitmap = getelementptr inbounds %struct.BDRVParallelsState, ptr %0, i32 0, i32 8
  %1 = load ptr, ptr %bat_bitmap, align 8
  %2 = load i32, ptr %idx.addr, align 4
  %idxprom = zext i32 %2 to i64
  %arrayidx = getelementptr i32, ptr %1, i64 %idxprom
  %3 = load i32, ptr %arrayidx, align 4
  %call = call i32 @le32_to_cpu(i32 noundef %3)
  %conv = zext i32 %call to i64
  %4 = load ptr, ptr %s.addr, align 8
  %off_multiplier = getelementptr inbounds %struct.BDRVParallelsState, ptr %4, i32 0, i32 16
  %5 = load i32, ptr %off_multiplier, align 4
  %conv1 = zext i32 %5 to i64
  %mul = mul i64 %conv, %conv1
  ret i64 %mul
}

; Function Attrs: nounwind sspstrong uwtable
define internal i32 @parallels_co_pdiscard(ptr noundef %bs, i64 noundef %offset, i64 noundef %bytes) #0 {
entry:
  %retval = alloca i32, align 4
  %bs.addr = alloca ptr, align 8
  %offset.addr = alloca i64, align 8
  %bytes.addr = alloca i64, align 8
  %ret = alloca i32, align 4
  %cluster = alloca i32, align 4
  %count = alloca i32, align 4
  %s = alloca ptr, align 8
  %host_off = alloca i64, align 8
  store ptr %bs, ptr %bs.addr, align 8
  store i64 %offset, ptr %offset.addr, align 8
  store i64 %bytes, ptr %bytes.addr, align 8
  store i32 0, ptr %ret, align 4
  %0 = load ptr, ptr %bs.addr, align 8
  %opaque = getelementptr inbounds %struct.BlockDriverState, ptr %0, i32 0, i32 7
  %1 = load ptr, ptr %opaque, align 8
  store ptr %1, ptr %s, align 8
  %2 = load ptr, ptr %bs.addr, align 8
  %backing = getelementptr inbounds %struct.BlockDriverState, ptr %2, i32 0, i32 30
  %3 = load ptr, ptr %backing, align 8
  %tobool = icmp ne ptr %3, null
  br i1 %tobool, label %if.then, label %if.end

if.then:                                          ; preds = %entry
  store i32 -95, ptr %retval, align 4
  br label %return

if.end:                                           ; preds = %entry
  %4 = load i64, ptr %offset.addr, align 8
  %5 = load ptr, ptr %s, align 8
  %cluster_size = getelementptr inbounds %struct.BDRVParallelsState, ptr %5, i32 0, i32 15
  %6 = load i32, ptr %cluster_size, align 8
  %conv = zext i32 %6 to i64
  %rem = srem i64 %4, %conv
  %cmp = icmp eq i64 %rem, 0
  br i1 %cmp, label %if.else, label %if.then2

if.then2:                                         ; preds = %if.end
  store i32 -95, ptr %retval, align 4
  br label %return

if.else:                                          ; preds = %if.end
  %7 = load i64, ptr %bytes.addr, align 8
  %8 = load ptr, ptr %s, align 8
  %cluster_size3 = getelementptr inbounds %struct.BDRVParallelsState, ptr %8, i32 0, i32 15
  %9 = load i32, ptr %cluster_size3, align 8
  %conv4 = zext i32 %9 to i64
  %rem5 = srem i64 %7, %conv4
  %cmp6 = icmp eq i64 %rem5, 0
  br i1 %cmp6, label %if.end9, label %if.then8

if.then8:                                         ; preds = %if.else
  store i32 -95, ptr %retval, align 4
  br label %return

if.end9:                                          ; preds = %if.else
  br label %if.end10

if.end10:                                         ; preds = %if.end9
  %10 = load i64, ptr %offset.addr, align 8
  %11 = load ptr, ptr %s, align 8
  %cluster_size11 = getelementptr inbounds %struct.BDRVParallelsState, ptr %11, i32 0, i32 15
  %12 = load i32, ptr %cluster_size11, align 8
  %conv12 = zext i32 %12 to i64
  %div = sdiv i64 %10, %conv12
  %conv13 = trunc i64 %div to i32
  store i32 %conv13, ptr %cluster, align 4
  %13 = load i64, ptr %bytes.addr, align 8
  %14 = load ptr, ptr %s, align 8
  %cluster_size14 = getelementptr inbounds %struct.BDRVParallelsState, ptr %14, i32 0, i32 15
  %15 = load i32, ptr %cluster_size14, align 8
  %conv15 = zext i32 %15 to i64
  %div16 = sdiv i64 %13, %conv15
  %conv17 = trunc i64 %div16 to i32
  store i32 %conv17, ptr %count, align 4
  %16 = load ptr, ptr %s, align 8
  %lock = getelementptr inbounds %struct.BDRVParallelsState, ptr %16, i32 0, i32 0
  call void @qemu_co_mutex_lock(ptr noundef %lock)
  br label %for.cond

for.cond:                                         ; preds = %for.inc, %if.end10
  %17 = load i32, ptr %count, align 4
  %cmp18 = icmp ugt i32 %17, 0
  br i1 %cmp18, label %for.body, label %for.end

for.body:                                         ; preds = %for.cond
  %18 = load ptr, ptr %s, align 8
  %19 = load i32, ptr %cluster, align 4
  %call = call i64 @bat2sect(ptr noundef %18, i32 noundef %19)
  %shl = shl i64 %call, 9
  store i64 %shl, ptr %host_off, align 8
  %20 = load i64, ptr %host_off, align 8
  %cmp20 = icmp eq i64 %20, 0
  br i1 %cmp20, label %if.then22, label %if.end23

if.then22:                                        ; preds = %for.body
  br label %for.inc

if.end23:                                         ; preds = %for.body
  %21 = load ptr, ptr %bs.addr, align 8
  %file = getelementptr inbounds %struct.BlockDriverState, ptr %21, i32 0, i32 31
  %22 = load ptr, ptr %file, align 8
  %23 = load i64, ptr %host_off, align 8
  %24 = load ptr, ptr %s, align 8
  %cluster_size24 = getelementptr inbounds %struct.BDRVParallelsState, ptr %24, i32 0, i32 15
  %25 = load i32, ptr %cluster_size24, align 8
  %conv25 = zext i32 %25 to i64
  %call26 = call i32 @bdrv_co_pdiscard(ptr noundef %22, i64 noundef %23, i64 noundef %conv25)
  store i32 %call26, ptr %ret, align 4
  %26 = load i32, ptr %ret, align 4
  %cmp27 = icmp slt i32 %26, 0
  br i1 %cmp27, label %if.then29, label %if.end30

if.then29:                                        ; preds = %if.end23
  br label %done

if.end30:                                         ; preds = %if.end23
  %27 = load ptr, ptr %s, align 8
  %28 = load i32, ptr %cluster, align 4
  call void @parallels_set_bat_entry(ptr noundef %27, i32 noundef %28, i32 noundef 0)
  %29 = load ptr, ptr %s, align 8
  %used_bmap = getelementptr inbounds %struct.BDRVParallelsState, ptr %29, i32 0, i32 6
  %30 = load ptr, ptr %used_bmap, align 8
  %31 = load ptr, ptr %s, align 8
  %32 = load i64, ptr %host_off, align 8
  %call31 = call i32 @host_cluster_index(ptr noundef %31, i64 noundef %32)
  %conv32 = zext i32 %call31 to i64
  call void @bitmap_clear(ptr noundef %30, i64 noundef %conv32, i64 noundef 1)
  br label %for.inc

for.inc:                                          ; preds = %if.end30, %if.then22
  %33 = load i32, ptr %cluster, align 4
  %inc = add i32 %33, 1
  store i32 %inc, ptr %cluster, align 4
  %34 = load i32, ptr %count, align 4
  %dec = add i32 %34, -1
  store i32 %dec, ptr %count, align 4
  br label %for.cond, !llvm.loop !9

for.end:                                          ; preds = %for.cond
  br label %done

done:                                             ; preds = %for.end, %if.then29
  %35 = load ptr, ptr %s, align 8
  %lock33 = getelementptr inbounds %struct.BDRVParallelsState, ptr %35, i32 0, i32 0
  call void @qemu_co_mutex_unlock(ptr noundef %lock33)
  %36 = load i32, ptr %ret, align 4
  store i32 %36, ptr %retval, align 4
  br label %return

return:                                           ; preds = %done, %if.then8, %if.then2, %if.then
  %37 = load i32, ptr %retval, align 4
  ret i32 %37
}