; Function Attrs: nounwind sspstrong uwtable
define internal i32 @parallels_co_pdiscard(ptr noundef readonly captures(none) %bs, i64 noundef %offset, i64 noundef %bytes) #0 {
entry:
  %opaque = getelementptr inbounds nuw i8, ptr %bs, i64 24
  %0 = load ptr, ptr %opaque, align 8
  %backing = getelementptr inbounds nuw i8, ptr %bs, i64 16832
  %1 = load ptr, ptr %backing, align 8
  %tobool.not = icmp eq ptr %1, null
  br i1 %tobool.not, label %if.end, label %return

if.end:                                           ; preds = %entry
  %cluster_size = getelementptr inbounds nuw i8, ptr %0, i64 144
  %2 = load i32, ptr %cluster_size, align 8
  %conv = zext i32 %2 to i64
  %rem = srem i64 %offset, %conv
  %div = sdiv i64 %offset, %conv
  %cmp = icmp eq i64 %rem, 0
  br i1 %cmp, label %if.else, label %return

if.else:                                          ; preds = %if.end
  %rem5 = srem i64 %bytes, %conv
  %div16 = sdiv i64 %bytes, %conv
  %cmp6 = icmp eq i64 %rem5, 0
  br i1 %cmp6, label %if.end10, label %return

if.end10:                                         ; preds = %if.else
  %conv17 = trunc i64 %div16 to i32
  tail call void @qemu_co_mutex_lock(ptr noundef nonnull %0) #16
  %file = getelementptr inbounds nuw i8, ptr %bs, i64 16840
  %cmp18.not30 = icmp eq i32 %conv17, 0
  br i1 %cmp18.not30, label %done, label %for.body.lr.ph

for.body.lr.ph:                                   ; preds = %if.end10
  %conv13 = trunc i64 %div to i32
  %3 = getelementptr i8, ptr %0, i64 96
  %4 = getelementptr i8, ptr %0, i64 148
  %bat_dirty_bmap.i = getelementptr inbounds nuw i8, ptr %0, i64 64
  %bat_dirty_block.i = getelementptr inbounds nuw i8, ptr %0, i64 72
  %used_bmap = getelementptr inbounds nuw i8, ptr %0, i64 80
  %5 = getelementptr i8, ptr %0, i64 112
  br label %for.body

for.body:                                         ; preds = %for.body.lr.ph, %for.inc
  %ret.033 = phi i32 [ 0, %for.body.lr.ph ], [ %ret.1, %for.inc ]
  %count.032 = phi i32 [ %conv17, %for.body.lr.ph ], [ %dec, %for.inc ]
  %cluster.031 = phi i32 [ %conv13, %for.body.lr.ph ], [ %inc, %for.inc ]
  %.val = load ptr, ptr %3, align 8
  %.val21 = load i32, ptr %4, align 4
  %idxprom.i = zext i32 %cluster.031 to i64
  %arrayidx.i = getelementptr i32, ptr %.val, i64 %idxprom.i
  %6 = load i32, ptr %arrayidx.i, align 4
  %conv.i = zext i32 %6 to i64
  %conv1.i = zext i32 %.val21 to i64
  %mul.i = mul nuw i64 %conv.i, %conv1.i
  %shl = shl i64 %mul.i, 9
  %cmp20 = icmp eq i64 %shl, 0
  br i1 %cmp20, label %for.inc, label %if.end23

if.end23:                                         ; preds = %for.body
  %7 = load ptr, ptr %file, align 8
  %8 = load i32, ptr %cluster_size, align 8
  %conv25 = zext i32 %8 to i64
  %call26 = tail call i32 @bdrv_co_pdiscard(ptr noundef %7, i64 noundef %shl, i64 noundef %conv25) #16
  %cmp27 = icmp slt i32 %call26, 0
  br i1 %cmp27, label %done, label %if.end30

if.end30:                                         ; preds = %if.end23
  %9 = load ptr, ptr %3, align 8
  %arrayidx.i25 = getelementptr i32, ptr %9, i64 %idxprom.i
  store i32 0, ptr %arrayidx.i25, align 4
  %10 = load ptr, ptr %bat_dirty_bmap.i, align 8
  %mul.i.i = shl i32 %cluster.031, 2
  %add.i.i = add i32 %mul.i.i, 64
  %11 = load i32, ptr %bat_dirty_block.i, align 8
  %div.i = udiv i32 %add.i.i, %11
  %conv.i26 = zext i32 %div.i to i64
  tail call void @bitmap_set(ptr noundef %10, i64 noundef %conv.i26, i64 noundef 1) #16
  %12 = load ptr, ptr %used_bmap, align 8
  %.val22 = load i64, ptr %5, align 8
  %.val23 = load i32, ptr %cluster_size, align 8
  %13 = sub i64 %mul.i, %.val22
  %sub.i = shl i64 %13, 9
  %conv.i27 = zext i32 %.val23 to i64
  %div.i28 = sdiv i64 %sub.i, %conv.i27
  %conv32 = and i64 %div.i28, 4294967295
  tail call void @bitmap_clear(ptr noundef %12, i64 noundef %conv32, i64 noundef 1) #16
  br label %for.inc

for.inc:                                          ; preds = %for.body, %if.end30
  %ret.1 = phi i32 [ %ret.033, %for.body ], [ %call26, %if.end30 ]
  %inc = add i32 %cluster.031, 1
  %dec = add i32 %count.032, -1
  %cmp18.not = icmp eq i32 %dec, 0
  br i1 %cmp18.not, label %done, label %for.body, !llvm.loop !10

done:                                             ; preds = %if.end23, %for.inc, %if.end10
  %ret.2 = phi i32 [ 0, %if.end10 ], [ %ret.1, %for.inc ], [ %call26, %if.end23 ]
  tail call void @qemu_co_mutex_unlock(ptr noundef nonnull %0) #16
  br label %return

return:                                           ; preds = %if.else, %if.end, %entry, %done
  %retval.0 = phi i32 [ %ret.2, %done ], [ -95, %entry ], [ -95, %if.end ], [ -95, %if.else ]
  ret i32 %retval.0
}